target datalayout = "e-m:e-p270:32:32-p271:32:32-p272:64:64-i64:64-i128:128-f80:128-n8:16:32:64-S128"
target triple = "x86_64-pc-linux-gnu"

@H5R_init_g = global i8 0, align 1
@H5_libterm_g = external global i8, align 1

; Function Attrs: nounwind uwtable
define i32 @H5R__encode_token_obj_compat(ptr noundef %0, i64 noundef %1, ptr noundef %2, ptr noundef %3) #0 {
  %5 = alloca ptr, align 8
  %6 = alloca i64, align 8
  %7 = alloca ptr, align 8
  %8 = alloca ptr, align 8
  %9 = alloca i32, align 4
  store ptr %0, ptr %5, align 8, !tbaa !9
  store i64 %1, ptr %6, align 8, !tbaa !12
  store ptr %2, ptr %7, align 8, !tbaa !24
  store ptr %3, ptr %8, align 8, !tbaa !26
  call void @llvm.lifetime.start.p0(i64 4, ptr %9) #9
  store i32 0, ptr %9, align 4, !tbaa !16
  %10 = load i8, ptr @H5R_init_g, align 1, !tbaa !3, !range !7, !noundef !8
  %11 = trunc i8 %10 to i1
  br i1 %11, label %16, label %12

12:                                               ; preds = %4
  %13 = load i8, ptr @H5_libterm_g, align 1, !tbaa !3, !range !7, !noundef !8
  %14 = trunc i8 %13 to i1
  %15 = xor i1 %14, true
  br label %16

16:                                               ; preds = %12, %4
  %17 = phi i1 [ true, %4 ], [ %15, %12 ]
  %18 = xor i1 %17, true
  %19 = xor i1 %18, true
  %20 = zext i1 %19 to i32
  %21 = sext i32 %20 to i64
  %22 = call i64 @llvm.expect.i64(i64 %21, i64 1)
  %23 = icmp ne i64 %22, 0
  br i1 %23, label %24, label %39

24:                                               ; preds = %16
  %25 = load ptr, ptr %7, align 8, !tbaa !24
  %26 = icmp ne ptr %25, null
  br i1 %26, label %27, label %36

27:                                               ; preds = %24
  %28 = load ptr, ptr %8, align 8, !tbaa !26
  %29 = load i64, ptr %28, align 8, !tbaa !12
  %30 = load i64, ptr %6, align 8, !tbaa !12
  %31 = icmp uge i64 %29, %30
  br i1 %31, label %32, label %36

32:                                               ; preds = %27
  %33 = load ptr, ptr %7, align 8, !tbaa !24
  %34 = load ptr, ptr %5, align 8, !tbaa !9
  %35 = load i64, ptr %6, align 8, !tbaa !12
  call void @llvm.memcpy.p0.p0.i64(ptr align 1 %33, ptr align 1 %34, i64 %35, i1 false)
  br label %36

36:                                               ; preds = %32, %27, %24
  %37 = load i64, ptr %6, align 8, !tbaa !12
  %38 = load ptr, ptr %8, align 8, !tbaa !26
  store i64 %37, ptr %38, align 8, !tbaa !12
  br label %39

39:                                               ; preds = %36, %16
  %40 = load i32, ptr %9, align 4, !tbaa !16
  call void @llvm.lifetime.end.p0(i64 4, ptr %9) #9
  ret i32 %40
}