; Function Attrs: mustprogress nofree norecurse nosync nounwind willreturn memory(read, argmem: readwrite, inaccessiblemem: none) uwtable
define noundef i32 @H5R__encode_token_obj_compat(ptr noundef readonly captures(none) %0, i64 noundef %1, ptr noundef writeonly captures(address_is_null) %2, ptr noundef captures(none) %3) local_unnamed_addr #3 {
  %5 = load i8, ptr @H5R_init_g, align 1, !tbaa !3, !range !7, !noundef !8
  %6 = trunc nuw i8 %5 to i1
  %7 = load i8, ptr @H5_libterm_g, align 1, !range !7
  %8 = trunc nuw i8 %7 to i1
  %9 = xor i1 %8, true
  %10 = select i1 %6, i1 true, i1 %9
  br i1 %10, label %11, label %16, !prof !9

11:                                               ; preds = %4
  %.not = icmp eq ptr %2, null
  br i1 %.not, label %15, label %12

12:                                               ; preds = %11
  %13 = load i64, ptr %3, align 8, !tbaa !17
  %.not9 = icmp ult i64 %13, %1
  br i1 %.not9, label %15, label %14

14:                                               ; preds = %12
  tail call void @llvm.memcpy.p0.p0.i64(ptr nonnull align 1 %2, ptr align 1 %0, i64 %1, i1 false)
  br label %15

15:                                               ; preds = %14, %12, %11
  store i64 %1, ptr %3, align 8, !tbaa !17
  br label %16

16:                                               ; preds = %15, %4
  ret i32 0
}